; Function Attrs: mustprogress uwtable
define void @_ZN32pxrInternal_v0_24__pxrReserved__20HgiTessellationStateC2Ev(ptr noundef nonnull align 4 dereferenceable(36) %0) unnamed_addr #3 align 2 {
  store i32 0, ptr %0, align 4
  %2 = getelementptr inbounds nuw i8, ptr %0, i64 4
  store i32 0, ptr %2, align 4
  %3 = getelementptr inbounds nuw i8, ptr %0, i64 8
  store i32 0, ptr %3, align 4
  %4 = getelementptr inbounds nuw i8, ptr %0, i64 12
  tail call void @_ZN32pxrInternal_v0_24__pxrReserved__20HgiTessellationLevelC1Ev(ptr noundef nonnull align 4 dereferenceable(24) %4)
  ret void
}